
bin\Release\exp7.elf:     file format elf32-avr

Sections:
Idx Name          Size      VMA       LMA       File off  Algn
  0 .data         00000008  00800100  000005fe  00000692  2**0
                  CONTENTS, ALLOC, LOAD, DATA
  1 .text         000005fe  00000000  00000000  00000094  2**1
                  CONTENTS, ALLOC, LOAD, READONLY, CODE
  2 .bss          00000036  00800108  00800108  0000069a  2**0
                  ALLOC

Disassembly of section .text:

00000000 <__vectors>:
   0:	0c 94 34 00 	jmp	0x68	; 0x68 <__ctors_end>
   4:	0c 94 51 00 	jmp	0xa2	; 0xa2 <__bad_interrupt>
   8:	0c 94 51 00 	jmp	0xa2	; 0xa2 <__bad_interrupt>
   c:	0c 94 51 00 	jmp	0xa2	; 0xa2 <__bad_interrupt>
  10:	0c 94 51 00 	jmp	0xa2	; 0xa2 <__bad_interrupt>
  14:	0c 94 51 00 	jmp	0xa2	; 0xa2 <__bad_interrupt>
  18:	0c 94 51 00 	jmp	0xa2	; 0xa2 <__bad_interrupt>
  1c:	0c 94 6f 01 	jmp	0x2de	; 0x2de <__vector_7>
  20:	0c 94 51 00 	jmp	0xa2	; 0xa2 <__bad_interrupt>
  24:	0c 94 51 00 	jmp	0xa2	; 0xa2 <__bad_interrupt>
  28:	0c 94 51 00 	jmp	0xa2	; 0xa2 <__bad_interrupt>
  2c:	0c 94 97 01 	jmp	0x32e	; 0x32e <__vector_11>
  30:	0c 94 51 00 	jmp	0xa2	; 0xa2 <__bad_interrupt>
  34:	0c 94 51 00 	jmp	0xa2	; 0xa2 <__bad_interrupt>
  38:	0c 94 51 00 	jmp	0xa2	; 0xa2 <__bad_interrupt>
  3c:	0c 94 51 00 	jmp	0xa2	; 0xa2 <__bad_interrupt>
  40:	0c 94 51 00 	jmp	0xa2	; 0xa2 <__bad_interrupt>
  44:	0c 94 51 00 	jmp	0xa2	; 0xa2 <__bad_interrupt>
  48:	0c 94 51 00 	jmp	0xa2	; 0xa2 <__bad_interrupt>
  4c:	0c 94 51 00 	jmp	0xa2	; 0xa2 <__bad_interrupt>
  50:	0c 94 51 00 	jmp	0xa2	; 0xa2 <__bad_interrupt>
  54:	0c 94 51 00 	jmp	0xa2	; 0xa2 <__bad_interrupt>
  58:	0c 94 51 00 	jmp	0xa2	; 0xa2 <__bad_interrupt>
  5c:	0c 94 51 00 	jmp	0xa2	; 0xa2 <__bad_interrupt>
  60:	0c 94 51 00 	jmp	0xa2	; 0xa2 <__bad_interrupt>
  64:	0c 94 51 00 	jmp	0xa2	; 0xa2 <__bad_interrupt>

00000068 <__ctors_end>:
  68:	11 24       	eor	r1, r1
  6a:	1f be       	out	0x3f, r1	; 63
  6c:	cf ef       	ldi	r28, 0xFF	; 255
  6e:	d8 e0       	ldi	r29, 0x08	; 8
  70:	de bf       	out	0x3e, r29	; 62
  72:	cd bf       	out	0x3d, r28	; 61

00000074 <__do_copy_data>:
  74:	11 e0       	ldi	r17, 0x01	; 1
  76:	a0 e0       	ldi	r26, 0x00	; 0
  78:	b1 e0       	ldi	r27, 0x01	; 1
  7a:	ee ef       	ldi	r30, 0xFE	; 254
  7c:	f5 e0       	ldi	r31, 0x05	; 5
  7e:	02 c0       	rjmp	.+4      	; 0x84 <.do_copy_data_start>

00000080 <.do_copy_data_loop>:
  80:	05 90       	lpm	r0, Z+
  82:	0d 92       	st	X+, r0

00000084 <.do_copy_data_start>:
  84:	a8 30       	cpi	r26, 0x08	; 8
  86:	b1 07       	cpc	r27, r17
  88:	d9 f7       	brne	.-10     	; 0x80 <.do_copy_data_loop>

0000008a <__do_clear_bss>:
  8a:	11 e0       	ldi	r17, 0x01	; 1
  8c:	a8 e0       	ldi	r26, 0x08	; 8
  8e:	b1 e0       	ldi	r27, 0x01	; 1
  90:	01 c0       	rjmp	.+2      	; 0x94 <.do_clear_bss_start>

00000092 <.do_clear_bss_loop>:
  92:	1d 92       	st	X+, r1

00000094 <.do_clear_bss_start>:
  94:	ae 33       	cpi	r26, 0x3E	; 62
  96:	b1 07       	cpc	r27, r17
  98:	e1 f7       	brne	.-8      	; 0x92 <.do_clear_bss_loop>
  9a:	0e 94 1c 02 	call	0x438	; 0x438 <main>
  9e:	0c 94 fd 02 	jmp	0x5fa	; 0x5fa <_exit>

000000a2 <__bad_interrupt>:
  a2:	0c 94 00 00 	jmp	0	; 0x0 <__vectors>

000000a6 <LCD_SetMarker>:
  a6:	88 23       	and	r24, r24
  a8:	21 f0       	breq	.+8      	; 0xb2 <LCD_SetMarker+0xc>
  aa:	80 e8       	ldi	r24, 0x80	; 128
  ac:	80 93 08 01 	sts	0x0108, r24
  b0:	08 95       	ret
  b2:	10 92 08 01 	sts	0x0108, r1
  b6:	08 95       	ret

000000b8 <LCD_WriteInst>:
  b8:	98 2f       	mov	r25, r24
  ba:	92 95       	swap	r25
  bc:	9f 70       	andi	r25, 0x0F	; 15
  be:	28 2f       	mov	r18, r24
  c0:	2f 70       	andi	r18, 0x0F	; 15
  c2:	80 91 08 01 	lds	r24, 0x0108
  c6:	88 23       	and	r24, r24
  c8:	11 f0       	breq	.+4      	; 0xce <LCD_WriteInst+0x16>
  ca:	90 68       	ori	r25, 0x80	; 128
  cc:	20 68       	ori	r18, 0x80	; 128
  ce:	95 b9       	out	0x05, r25	; 5
  d0:	95 b9       	out	0x05, r25	; 5
  d2:	89 2f       	mov	r24, r25
  d4:	80 64       	ori	r24, 0x40	; 64
  d6:	85 b9       	out	0x05, r24	; 5
  d8:	85 b9       	out	0x05, r24	; 5
  da:	95 b9       	out	0x05, r25	; 5
  dc:	95 b9       	out	0x05, r25	; 5
  de:	25 b9       	out	0x05, r18	; 5
  e0:	25 b9       	out	0x05, r18	; 5
  e2:	82 2f       	mov	r24, r18
  e4:	80 64       	ori	r24, 0x40	; 64
  e6:	85 b9       	out	0x05, r24	; 5
  e8:	85 b9       	out	0x05, r24	; 5
  ea:	25 b9       	out	0x05, r18	; 5
  ec:	25 b9       	out	0x05, r18	; 5
  ee:	15 b8       	out	0x05, r1	; 5
  f0:	8a e6       	ldi	r24, 0x6A	; 106
  f2:	8a 95       	dec	r24
  f4:	f1 f7       	brne	.-4      	; 0xf2 <LCD_WriteInst+0x3a>
  f6:	08 95       	ret

000000f8 <LCD_WriteData>:
  f8:	48 2f       	mov	r20, r24
  fa:	42 95       	swap	r20
  fc:	4f 70       	andi	r20, 0x0F	; 15
  fe:	94 2f       	mov	r25, r20
 100:	90 61       	ori	r25, 0x10	; 16
 102:	38 2f       	mov	r19, r24
 104:	3f 70       	andi	r19, 0x0F	; 15
 106:	23 2f       	mov	r18, r19
 108:	20 61       	ori	r18, 0x10	; 16
 10a:	80 91 08 01 	lds	r24, 0x0108
 10e:	88 23       	and	r24, r24
 110:	21 f0       	breq	.+8      	; 0x11a <LCD_WriteData+0x22>
 112:	94 2f       	mov	r25, r20
 114:	90 69       	ori	r25, 0x90	; 144
 116:	23 2f       	mov	r18, r19
 118:	20 69       	ori	r18, 0x90	; 144
 11a:	95 b9       	out	0x05, r25	; 5
 11c:	95 b9       	out	0x05, r25	; 5
 11e:	89 2f       	mov	r24, r25
 120:	80 64       	ori	r24, 0x40	; 64
 122:	85 b9       	out	0x05, r24	; 5
 124:	85 b9       	out	0x05, r24	; 5
 126:	95 b9       	out	0x05, r25	; 5
 128:	95 b9       	out	0x05, r25	; 5
 12a:	25 b9       	out	0x05, r18	; 5
 12c:	25 b9       	out	0x05, r18	; 5
 12e:	82 2f       	mov	r24, r18
 130:	80 64       	ori	r24, 0x40	; 64
 132:	85 b9       	out	0x05, r24	; 5
 134:	85 b9       	out	0x05, r24	; 5
 136:	25 b9       	out	0x05, r18	; 5
 138:	25 b9       	out	0x05, r18	; 5
 13a:	15 b8       	out	0x05, r1	; 5
 13c:	85 e8       	ldi	r24, 0x85	; 133
 13e:	8a 95       	dec	r24
 140:	f1 f7       	brne	.-4      	; 0x13e <LCD_WriteData+0x46>
 142:	08 95       	ret

00000144 <LCD_Clear>:
 144:	0f 93       	push	r16
 146:	1f 93       	push	r17
 148:	81 e0       	ldi	r24, 0x01	; 1
 14a:	0e 94 5c 00 	call	0xb8	; 0xb8 <LCD_WriteInst>
 14e:	00 ea       	ldi	r16, 0xA0	; 160
 150:	1f e0       	ldi	r17, 0x0F	; 15
 152:	c8 01       	movw	r24, r16
 154:	01 97       	sbiw	r24, 0x01	; 1
 156:	f1 f7       	brne	.-4      	; 0x154 <LCD_Clear+0x10>
 158:	82 e0       	ldi	r24, 0x02	; 2
 15a:	0e 94 5c 00 	call	0xb8	; 0xb8 <LCD_WriteInst>
 15e:	c8 01       	movw	r24, r16
 160:	01 97       	sbiw	r24, 0x01	; 1
 162:	f1 f7       	brne	.-4      	; 0x160 <LCD_Clear+0x1c>
 164:	1f 91       	pop	r17
 166:	0f 91       	pop	r16
 168:	08 95       	ret

0000016a <LCD_Init>:
 16a:	80 91 08 01 	lds	r24, 0x0108
 16e:	98 2f       	mov	r25, r24
 170:	92 60       	ori	r25, 0x02	; 2
 172:	95 b9       	out	0x05, r25	; 5
 174:	95 b9       	out	0x05, r25	; 5
 176:	82 64       	ori	r24, 0x42	; 66
 178:	85 b9       	out	0x05, r24	; 5
 17a:	85 b9       	out	0x05, r24	; 5
 17c:	95 b9       	out	0x05, r25	; 5
 17e:	95 b9       	out	0x05, r25	; 5
 180:	15 b8       	out	0x05, r1	; 5
 182:	85 e8       	ldi	r24, 0x85	; 133
 184:	8a 95       	dec	r24
 186:	f1 f7       	brne	.-4      	; 0x184 <LCD_Init+0x1a>
 188:	88 e2       	ldi	r24, 0x28	; 40
 18a:	0e 94 5c 00 	call	0xb8	; 0xb8 <LCD_WriteInst>
 18e:	86 e0       	ldi	r24, 0x06	; 6
 190:	0e 94 5c 00 	call	0xb8	; 0xb8 <LCD_WriteInst>
 194:	8c e0       	ldi	r24, 0x0C	; 12
 196:	0e 94 5c 00 	call	0xb8	; 0xb8 <LCD_WriteInst>
 19a:	0e 94 a2 00 	call	0x144	; 0x144 <LCD_Clear>
 19e:	08 95       	ret

000001a0 <LCD_MoveCursor>:
 1a0:	81 30       	cpi	r24, 0x01	; 1
 1a2:	11 f0       	breq	.+4      	; 0x1a8 <LCD_MoveCursor+0x8>
 1a4:	80 ec       	ldi	r24, 0xC0	; 192
 1a6:	01 c0       	rjmp	.+2      	; 0x1aa <LCD_MoveCursor+0xa>
 1a8:	80 e8       	ldi	r24, 0x80	; 128
 1aa:	61 50       	subi	r22, 0x01	; 1
 1ac:	6f 70       	andi	r22, 0x0F	; 15
 1ae:	86 2b       	or	r24, r22
 1b0:	0e 94 5c 00 	call	0xb8	; 0xb8 <LCD_WriteInst>
 1b4:	08 95       	ret

000001b6 <LCD_WriteString>:
 1b6:	cf 93       	push	r28
 1b8:	df 93       	push	r29
 1ba:	ec 01       	movw	r28, r24
 1bc:	03 c0       	rjmp	.+6      	; 0x1c4 <LCD_WriteString+0xe>
 1be:	0e 94 7c 00 	call	0xf8	; 0xf8 <LCD_WriteData>
 1c2:	21 96       	adiw	r28, 0x01	; 1
 1c4:	88 81       	ld	r24, Y
 1c6:	88 23       	and	r24, r24
 1c8:	d1 f7       	brne	.-12     	; 0x1be <LCD_WriteString+0x8>
 1ca:	df 91       	pop	r29
 1cc:	cf 91       	pop	r28
 1ce:	08 95       	ret

000001d0 <init_timers>:
 1d0:	83 e8       	ldi	r24, 0x83	; 131
 1d2:	84 bd       	out	0x24, r24	; 36
 1d4:	81 e0       	ldi	r24, 0x01	; 1
 1d6:	85 bd       	out	0x25, r24	; 37
 1d8:	10 92 6e 00 	sts	0x006E, r1
 1dc:	10 92 80 00 	sts	0x0080, r1
 1e0:	8a e0       	ldi	r24, 0x0A	; 10
 1e2:	80 93 81 00 	sts	0x0081, r24
 1e6:	10 92 82 00 	sts	0x0082, r1
 1ea:	ef e6       	ldi	r30, 0x6F	; 111
 1ec:	f0 e0       	ldi	r31, 0x00	; 0
 1ee:	80 81       	ld	r24, Z
 1f0:	82 60       	ori	r24, 0x02	; 2
 1f2:	80 83       	st	Z, r24
 1f4:	88 ee       	ldi	r24, 0xE8	; 232
 1f6:	93 e0       	ldi	r25, 0x03	; 3
 1f8:	90 93 89 00 	sts	0x0089, r25
 1fc:	80 93 88 00 	sts	0x0088, r24
 200:	82 e0       	ldi	r24, 0x02	; 2
 202:	80 93 b0 00 	sts	0x00B0, r24
 206:	80 93 b1 00 	sts	0x00B1, r24
 20a:	82 e3       	ldi	r24, 0x32	; 50
 20c:	80 93 b3 00 	sts	0x00B3, r24
 210:	e0 e7       	ldi	r30, 0x70	; 112
 212:	f0 e0       	ldi	r31, 0x00	; 0
 214:	80 81       	ld	r24, Z
 216:	82 60       	ori	r24, 0x02	; 2
 218:	80 83       	st	Z, r24
 21a:	78 94       	sei
 21c:	08 95       	ret

0000021e <init_adc>:
 21e:	81 e2       	ldi	r24, 0x21	; 33
 220:	80 93 7c 00 	sts	0x007C, r24
 224:	86 e8       	ldi	r24, 0x86	; 134
 226:	80 93 7a 00 	sts	0x007A, r24
 22a:	10 92 7b 00 	sts	0x007B, r1
 22e:	08 95       	ret

00000230 <EnQueueLCDbuffer>:
 230:	e0 91 05 01 	lds	r30, 0x0105
 234:	f0 91 06 01 	lds	r31, 0x0106
 238:	80 83       	st	Z, r24
 23a:	80 91 3d 01 	lds	r24, 0x013D
 23e:	8f 5f       	subi	r24, 0xFF	; 255
 240:	80 93 3d 01 	sts	0x013D, r24
 244:	80 91 0a 01 	lds	r24, 0x010A
 248:	8f 5f       	subi	r24, 0xFF	; 255
 24a:	80 93 0a 01 	sts	0x010A, r24
 24e:	80 32       	cpi	r24, 0x20	; 32
 250:	49 f4       	brne	.+18     	; 0x264 <EnQueueLCDbuffer+0x34>
 252:	8b e0       	ldi	r24, 0x0B	; 11
 254:	91 e0       	ldi	r25, 0x01	; 1
 256:	90 93 06 01 	sts	0x0106, r25
 25a:	80 93 05 01 	sts	0x0105, r24
 25e:	10 92 0a 01 	sts	0x010A, r1
 262:	08 95       	ret
 264:	31 96       	adiw	r30, 0x01	; 1
 266:	f0 93 06 01 	sts	0x0106, r31
 26a:	e0 93 05 01 	sts	0x0105, r30
 26e:	08 95       	ret

00000270 <DeQueueLCDbuffer>:
 270:	30 91 3d 01 	lds	r19, 0x013D
 274:	33 23       	and	r19, r19
 276:	91 f1       	breq	.+100    	; 0x2dc <DeQueueLCDbuffer+0x6c>
 278:	e0 91 03 01 	lds	r30, 0x0103
 27c:	f0 91 04 01 	lds	r31, 0x0104
 280:	20 81       	ld	r18, Z
 282:	92 2f       	mov	r25, r18
 284:	92 95       	swap	r25
 286:	9f 70       	andi	r25, 0x0F	; 15
 288:	27 ff       	sbrs	r18, 7
 28a:	90 61       	ori	r25, 0x10	; 16
 28c:	95 b9       	out	0x05, r25	; 5
 28e:	89 2f       	mov	r24, r25
 290:	80 64       	ori	r24, 0x40	; 64
 292:	85 b9       	out	0x05, r24	; 5
 294:	95 b9       	out	0x05, r25	; 5
 296:	89 2f       	mov	r24, r25
 298:	80 7f       	andi	r24, 0xF0	; 240
 29a:	2f 70       	andi	r18, 0x0F	; 15
 29c:	82 2b       	or	r24, r18
 29e:	85 b9       	out	0x05, r24	; 5
 2a0:	98 2f       	mov	r25, r24
 2a2:	90 64       	ori	r25, 0x40	; 64
 2a4:	95 b9       	out	0x05, r25	; 5
 2a6:	85 b9       	out	0x05, r24	; 5
 2a8:	15 b8       	out	0x05, r1	; 5
 2aa:	80 91 02 01 	lds	r24, 0x0102
 2ae:	81 50       	subi	r24, 0x01	; 1
 2b0:	80 93 02 01 	sts	0x0102, r24
 2b4:	88 23       	and	r24, r24
 2b6:	51 f4       	brne	.+20     	; 0x2cc <DeQueueLCDbuffer+0x5c>
 2b8:	8b e0       	ldi	r24, 0x0B	; 11
 2ba:	91 e0       	ldi	r25, 0x01	; 1
 2bc:	90 93 04 01 	sts	0x0104, r25
 2c0:	80 93 03 01 	sts	0x0103, r24
 2c4:	80 e2       	ldi	r24, 0x20	; 32
 2c6:	80 93 02 01 	sts	0x0102, r24
 2ca:	05 c0       	rjmp	.+10     	; 0x2d6 <DeQueueLCDbuffer+0x66>
 2cc:	31 96       	adiw	r30, 0x01	; 1
 2ce:	f0 93 04 01 	sts	0x0104, r31
 2d2:	e0 93 03 01 	sts	0x0103, r30
 2d6:	31 50       	subi	r19, 0x01	; 1
 2d8:	30 93 3d 01 	sts	0x013D, r19
 2dc:	08 95       	ret

000002de <__vector_7>:
 2de:	1f 92       	push	r1
 2e0:	0f 92       	push	r0
 2e2:	0f b6       	in	r0, 0x3f	; 63
 2e4:	0f 92       	push	r0
 2e6:	11 24       	eor	r1, r1
 2e8:	2f 93       	push	r18
 2ea:	3f 93       	push	r19
 2ec:	4f 93       	push	r20
 2ee:	5f 93       	push	r21
 2f0:	6f 93       	push	r22
 2f2:	7f 93       	push	r23
 2f4:	8f 93       	push	r24
 2f6:	9f 93       	push	r25
 2f8:	af 93       	push	r26
 2fa:	bf 93       	push	r27
 2fc:	ef 93       	push	r30
 2fe:	ff 93       	push	r31
 300:	5d 9a       	sbi	0x0b, 5	; 11
 302:	10 92 b2 00 	sts	0x00B2, r1
 306:	0e 94 38 01 	call	0x270	; 0x270 <DeQueueLCDbuffer>
 30a:	5d 98       	cbi	0x0b, 5	; 11
 30c:	ff 91       	pop	r31
 30e:	ef 91       	pop	r30
 310:	bf 91       	pop	r27
 312:	af 91       	pop	r26
 314:	9f 91       	pop	r25
 316:	8f 91       	pop	r24
 318:	7f 91       	pop	r23
 31a:	6f 91       	pop	r22
 31c:	5f 91       	pop	r21
 31e:	4f 91       	pop	r20
 320:	3f 91       	pop	r19
 322:	2f 91       	pop	r18
 324:	0f 90       	pop	r0
 326:	0f be       	out	0x3f, r0	; 63
 328:	0f 90       	pop	r0
 32a:	1f 90       	pop	r1
 32c:	18 95       	reti

0000032e <__vector_11>:
 32e:	1f 92       	push	r1
 330:	0f 92       	push	r0
 332:	0f b6       	in	r0, 0x3f	; 63
 334:	0f 92       	push	r0
 336:	11 24       	eor	r1, r1
 338:	2f 93       	push	r18
 33a:	3f 93       	push	r19
 33c:	4f 93       	push	r20
 33e:	5f 93       	push	r21
 340:	6f 93       	push	r22
 342:	7f 93       	push	r23
 344:	8f 93       	push	r24
 346:	9f 93       	push	r25
 348:	af 93       	push	r26
 34a:	bf 93       	push	r27
 34c:	cf 93       	push	r28
 34e:	df 93       	push	r29
 350:	ef 93       	push	r30
 352:	ff 93       	push	r31
 354:	5c 9a       	sbi	0x0b, 4	; 11
 356:	82 e0       	ldi	r24, 0x02	; 2
 358:	80 93 70 00 	sts	0x0070, r24
 35c:	86 ec       	ldi	r24, 0xC6	; 198
 35e:	80 93 7a 00 	sts	0x007A, r24
 362:	80 91 7a 00 	lds	r24, 0x007A
 366:	86 fd       	sbrc	r24, 6
 368:	fc cf       	rjmp	.-8      	; 0x362 <__vector_11+0x34>
 36a:	40 91 79 00 	lds	r20, 0x0079
 36e:	cd e2       	ldi	r28, 0x2D	; 45
 370:	d1 e0       	ldi	r29, 0x01	; 1
 372:	ce 01       	movw	r24, r28
 374:	60 e0       	ldi	r22, 0x00	; 0
 376:	71 e0       	ldi	r23, 0x01	; 1
 378:	0e 94 b8 02 	call	0x570	; 0x570 <PrintByte>
 37c:	80 91 09 01 	lds	r24, 0x0109
 380:	81 30       	cpi	r24, 0x01	; 1
 382:	d1 f4       	brne	.+52     	; 0x3b8 <__vector_11+0x8a>
 384:	80 e8       	ldi	r24, 0x80	; 128
 386:	0e 94 18 01 	call	0x230	; 0x230 <EnQueueLCDbuffer>
 38a:	d0 93 2c 01 	sts	0x012C, r29
 38e:	c0 93 2b 01 	sts	0x012B, r28
 392:	0b c0       	rjmp	.+22     	; 0x3aa <__vector_11+0x7c>
 394:	0e 94 18 01 	call	0x230	; 0x230 <EnQueueLCDbuffer>
 398:	80 91 2b 01 	lds	r24, 0x012B
 39c:	90 91 2c 01 	lds	r25, 0x012C
 3a0:	01 96       	adiw	r24, 0x01	; 1
 3a2:	90 93 2c 01 	sts	0x012C, r25
 3a6:	80 93 2b 01 	sts	0x012B, r24
 3aa:	e0 91 2b 01 	lds	r30, 0x012B
 3ae:	f0 91 2c 01 	lds	r31, 0x012C
 3b2:	80 81       	ld	r24, Z
 3b4:	88 23       	and	r24, r24
 3b6:	71 f7       	brne	.-36     	; 0x394 <__vector_11+0x66>
 3b8:	20 91 01 01 	lds	r18, 0x0101
 3bc:	42 2f       	mov	r20, r18
 3be:	50 e0       	ldi	r21, 0x00	; 0
 3c0:	20 fd       	sbrc	r18, 0
 3c2:	19 c0       	rjmp	.+50     	; 0x3f6 <__vector_11+0xc8>
 3c4:	40 91 79 00 	lds	r20, 0x0079
 3c8:	26 95       	lsr	r18
 3ca:	30 e0       	ldi	r19, 0x00	; 0
 3cc:	80 91 79 00 	lds	r24, 0x0079
 3d0:	90 e0       	ldi	r25, 0x00	; 0
 3d2:	2f 5f       	subi	r18, 0xFF	; 255
 3d4:	3f 4f       	sbci	r19, 0xFF	; 255
 3d6:	02 2e       	mov	r0, r18
 3d8:	02 c0       	rjmp	.+4      	; 0x3de <__vector_11+0xb0>
 3da:	95 95       	asr	r25
 3dc:	87 95       	ror	r24
 3de:	0a 94       	dec	r0
 3e0:	e2 f7       	brpl	.-8      	; 0x3da <__vector_11+0xac>
 3e2:	21 50       	subi	r18, 0x01	; 1
 3e4:	30 40       	sbci	r19, 0x00	; 0
 3e6:	50 e0       	ldi	r21, 0x00	; 0
 3e8:	02 c0       	rjmp	.+4      	; 0x3ee <__vector_11+0xc0>
 3ea:	55 95       	asr	r21
 3ec:	47 95       	ror	r20
 3ee:	2a 95       	dec	r18
 3f0:	e2 f7       	brpl	.-8      	; 0x3ea <__vector_11+0xbc>
 3f2:	84 0f       	add	r24, r20
 3f4:	0c c0       	rjmp	.+24     	; 0x40e <__vector_11+0xe0>
 3f6:	80 91 79 00 	lds	r24, 0x0079
 3fa:	90 e0       	ldi	r25, 0x00	; 0
 3fc:	41 50       	subi	r20, 0x01	; 1
 3fe:	50 40       	sbci	r21, 0x00	; 0
 400:	55 95       	asr	r21
 402:	47 95       	ror	r20
 404:	02 c0       	rjmp	.+4      	; 0x40a <__vector_11+0xdc>
 406:	95 95       	asr	r25
 408:	87 95       	ror	r24
 40a:	4a 95       	dec	r20
 40c:	e2 f7       	brpl	.-8      	; 0x406 <__vector_11+0xd8>
 40e:	87 bd       	out	0x27, r24	; 39
 410:	5c 98       	cbi	0x0b, 4	; 11
 412:	ff 91       	pop	r31
 414:	ef 91       	pop	r30
 416:	df 91       	pop	r29
 418:	cf 91       	pop	r28
 41a:	bf 91       	pop	r27
 41c:	af 91       	pop	r26
 41e:	9f 91       	pop	r25
 420:	8f 91       	pop	r24
 422:	7f 91       	pop	r23
 424:	6f 91       	pop	r22
 426:	5f 91       	pop	r21
 428:	4f 91       	pop	r20
 42a:	3f 91       	pop	r19
 42c:	2f 91       	pop	r18
 42e:	0f 90       	pop	r0
 430:	0f be       	out	0x3f, r0	; 63
 432:	0f 90       	pop	r0
 434:	1f 90       	pop	r1
 436:	18 95       	reti

00000438 <main>:
 438:	df 92       	push	r13
 43a:	ef 92       	push	r14
 43c:	ff 92       	push	r15
 43e:	0f 93       	push	r16
 440:	1f 93       	push	r17
 442:	cf 93       	push	r28
 444:	df 93       	push	r29
 446:	8f ef       	ldi	r24, 0xFF	; 255
 448:	84 b9       	out	0x04, r24	; 4
 44a:	8c ef       	ldi	r24, 0xFC	; 252
 44c:	87 b9       	out	0x07, r24	; 7
 44e:	80 ef       	ldi	r24, 0xF0	; 240
 450:	8a b9       	out	0x0a, r24	; 10
 452:	81 e2       	ldi	r24, 0x21	; 33
 454:	80 93 7c 00 	sts	0x007C, r24
 458:	86 e8       	ldi	r24, 0x86	; 134
 45a:	80 93 7a 00 	sts	0x007A, r24
 45e:	10 92 7b 00 	sts	0x007B, r1
 462:	0e 94 b5 00 	call	0x16a	; 0x16a <LCD_Init>
 466:	81 e0       	ldi	r24, 0x01	; 1
 468:	61 e0       	ldi	r22, 0x01	; 1
 46a:	0e 94 d0 00 	call	0x1a0	; 0x1a0 <LCD_MoveCursor>
 46e:	0e 94 e8 00 	call	0x1d0	; 0x1d0 <init_timers>
 472:	90 e0       	ldi	r25, 0x00	; 0
 474:	ff 24       	eor	r15, r15
 476:	32 e0       	ldi	r19, 0x02	; 2
 478:	e3 2e       	mov	r14, r19
 47a:	cd e2       	ldi	r28, 0x2D	; 45
 47c:	d1 e0       	ldi	r29, 0x01	; 1
 47e:	dd 24       	eor	r13, r13
 480:	d3 94       	inc	r13
 482:	02 c0       	rjmp	.+4      	; 0x488 <main+0x50>
 484:	f1 2e       	mov	r15, r17
 486:	90 2f       	mov	r25, r16
 488:	80 91 3d 01 	lds	r24, 0x013D
 48c:	88 23       	and	r24, r24
 48e:	19 f0       	breq	.+6      	; 0x496 <main+0x5e>
 490:	e0 92 70 00 	sts	0x0070, r14
 494:	02 c0       	rjmp	.+4      	; 0x49a <main+0x62>
 496:	10 92 70 00 	sts	0x0070, r1
 49a:	09 b1       	in	r16, 0x09	; 9
 49c:	01 70       	andi	r16, 0x01	; 1
 49e:	19 b1       	in	r17, 0x09	; 9
 4a0:	12 70       	andi	r17, 0x02	; 2
 4a2:	09 17       	cp	r16, r25
 4a4:	79 f1       	breq	.+94     	; 0x504 <main+0xcc>
 4a6:	40 91 01 01 	lds	r20, 0x0101
 4aa:	44 23       	and	r20, r20
 4ac:	59 f1       	breq	.+86     	; 0x504 <main+0xcc>
 4ae:	00 23       	and	r16, r16
 4b0:	49 f5       	brne	.+82     	; 0x504 <main+0xcc>
 4b2:	41 50       	subi	r20, 0x01	; 1
 4b4:	40 93 01 01 	sts	0x0101, r20
 4b8:	10 92 09 01 	sts	0x0109, r1
 4bc:	8d e2       	ldi	r24, 0x2D	; 45
 4be:	91 e0       	ldi	r25, 0x01	; 1
 4c0:	60 e0       	ldi	r22, 0x00	; 0
 4c2:	71 e0       	ldi	r23, 0x01	; 1
 4c4:	0e 94 b8 02 	call	0x570	; 0x570 <PrintByte>
 4c8:	80 ec       	ldi	r24, 0xC0	; 192
 4ca:	0e 94 18 01 	call	0x230	; 0x230 <EnQueueLCDbuffer>
 4ce:	d0 93 2c 01 	sts	0x012C, r29
 4d2:	c0 93 2b 01 	sts	0x012B, r28
 4d6:	0b c0       	rjmp	.+22     	; 0x4ee <main+0xb6>
 4d8:	0e 94 18 01 	call	0x230	; 0x230 <EnQueueLCDbuffer>
 4dc:	80 91 2b 01 	lds	r24, 0x012B
 4e0:	90 91 2c 01 	lds	r25, 0x012C
 4e4:	01 96       	adiw	r24, 0x01	; 1
 4e6:	90 93 2c 01 	sts	0x012C, r25
 4ea:	80 93 2b 01 	sts	0x012B, r24
 4ee:	e0 91 2b 01 	lds	r30, 0x012B
 4f2:	f0 91 2c 01 	lds	r31, 0x012C
 4f6:	80 81       	ld	r24, Z
 4f8:	88 23       	and	r24, r24
 4fa:	71 f7       	brne	.-36     	; 0x4d8 <main+0xa0>
 4fc:	e0 92 70 00 	sts	0x0070, r14
 500:	d0 92 09 01 	sts	0x0109, r13
 504:	1f 15       	cp	r17, r15
 506:	09 f4       	brne	.+2      	; 0x50a <main+0xd2>
 508:	bd cf       	rjmp	.-134    	; 0x484 <main+0x4c>
 50a:	40 91 01 01 	lds	r20, 0x0101
 50e:	4c 30       	cpi	r20, 0x0C	; 12
 510:	08 f0       	brcs	.+2      	; 0x514 <main+0xdc>
 512:	b8 cf       	rjmp	.-144    	; 0x484 <main+0x4c>
 514:	11 23       	and	r17, r17
 516:	09 f0       	breq	.+2      	; 0x51a <main+0xe2>
 518:	b5 cf       	rjmp	.-150    	; 0x484 <main+0x4c>
 51a:	4f 5f       	subi	r20, 0xFF	; 255
 51c:	40 93 01 01 	sts	0x0101, r20
 520:	10 92 09 01 	sts	0x0109, r1
 524:	8d e2       	ldi	r24, 0x2D	; 45
 526:	91 e0       	ldi	r25, 0x01	; 1
 528:	60 e0       	ldi	r22, 0x00	; 0
 52a:	71 e0       	ldi	r23, 0x01	; 1
 52c:	0e 94 b8 02 	call	0x570	; 0x570 <PrintByte>
 530:	80 ec       	ldi	r24, 0xC0	; 192
 532:	0e 94 18 01 	call	0x230	; 0x230 <EnQueueLCDbuffer>
 536:	d0 93 2c 01 	sts	0x012C, r29
 53a:	c0 93 2b 01 	sts	0x012B, r28
 53e:	0b c0       	rjmp	.+22     	; 0x556 <main+0x11e>
 540:	0e 94 18 01 	call	0x230	; 0x230 <EnQueueLCDbuffer>
 544:	80 91 2b 01 	lds	r24, 0x012B
 548:	90 91 2c 01 	lds	r25, 0x012C
 54c:	01 96       	adiw	r24, 0x01	; 1
 54e:	90 93 2c 01 	sts	0x012C, r25
 552:	80 93 2b 01 	sts	0x012B, r24
 556:	e0 91 2b 01 	lds	r30, 0x012B
 55a:	f0 91 2c 01 	lds	r31, 0x012C
 55e:	80 81       	ld	r24, Z
 560:	88 23       	and	r24, r24
 562:	71 f7       	brne	.-36     	; 0x540 <main+0x108>
 564:	e0 92 70 00 	sts	0x0070, r14
 568:	d0 92 09 01 	sts	0x0109, r13
 56c:	ff 24       	eor	r15, r15
 56e:	8b cf       	rjmp	.-234    	; 0x486 <main+0x4e>

00000570 <PrintByte>:
 570:	dc 01       	movw	r26, r24
 572:	fb 01       	movw	r30, r22
 574:	02 c0       	rjmp	.+4      	; 0x57a <PrintByte+0xa>
 576:	8d 93       	st	X+, r24
 578:	31 96       	adiw	r30, 0x01	; 1
 57a:	80 81       	ld	r24, Z
 57c:	88 23       	and	r24, r24
 57e:	d9 f7       	brne	.-10     	; 0x576 <PrintByte+0x6>
 580:	44 36       	cpi	r20, 0x64	; 100
 582:	20 f4       	brcc	.+8      	; 0x58c <PrintByte+0x1c>
 584:	80 e2       	ldi	r24, 0x20	; 32
 586:	8c 93       	st	X, r24
 588:	20 e0       	ldi	r18, 0x00	; 0
 58a:	0e c0       	rjmp	.+28     	; 0x5a8 <PrintByte+0x38>
 58c:	84 2f       	mov	r24, r20
 58e:	64 e6       	ldi	r22, 0x64	; 100
 590:	0e 94 f1 02 	call	0x5e2	; 0x5e2 <__udivmodqi4>
 594:	28 2f       	mov	r18, r24
 596:	20 5d       	subi	r18, 0xD0	; 208
 598:	2c 93       	st	X, r18
 59a:	20 53       	subi	r18, 0x30	; 48
 59c:	8c e9       	ldi	r24, 0x9C	; 156
 59e:	9f ef       	ldi	r25, 0xFF	; 255
 5a0:	28 9f       	mul	r18, r24
 5a2:	80 2d       	mov	r24, r0
 5a4:	11 24       	eor	r1, r1
 5a6:	48 0f       	add	r20, r24
 5a8:	fd 01       	movw	r30, r26
 5aa:	31 96       	adiw	r30, 0x01	; 1
 5ac:	4a 30       	cpi	r20, 0x0A	; 10
 5ae:	38 f4       	brcc	.+14     	; 0x5be <PrintByte+0x4e>
 5b0:	22 23       	and	r18, r18
 5b2:	11 f4       	brne	.+4      	; 0x5b8 <PrintByte+0x48>
 5b4:	80 e2       	ldi	r24, 0x20	; 32
 5b6:	01 c0       	rjmp	.+2      	; 0x5ba <PrintByte+0x4a>
 5b8:	80 e3       	ldi	r24, 0x30	; 48
 5ba:	80 83       	st	Z, r24
 5bc:	0e c0       	rjmp	.+28     	; 0x5da <PrintByte+0x6a>
 5be:	84 2f       	mov	r24, r20
 5c0:	6a e0       	ldi	r22, 0x0A	; 10
 5c2:	0e 94 f1 02 	call	0x5e2	; 0x5e2 <__udivmodqi4>
 5c6:	80 5d       	subi	r24, 0xD0	; 208
 5c8:	11 96       	adiw	r26, 0x01	; 1
 5ca:	8c 93       	st	X, r24
 5cc:	80 53       	subi	r24, 0x30	; 48
 5ce:	26 ef       	ldi	r18, 0xF6	; 246
 5d0:	3f ef       	ldi	r19, 0xFF	; 255
 5d2:	82 9f       	mul	r24, r18
 5d4:	80 2d       	mov	r24, r0
 5d6:	11 24       	eor	r1, r1
 5d8:	48 0f       	add	r20, r24
 5da:	40 5d       	subi	r20, 0xD0	; 208
 5dc:	41 83       	std	Z+1, r20	; 0x01
 5de:	12 82       	std	Z+2, r1	; 0x02
 5e0:	08 95       	ret

000005e2 <__udivmodqi4>:
 5e2:	99 1b       	sub	r25, r25
 5e4:	79 e0       	ldi	r23, 0x09	; 9
 5e6:	04 c0       	rjmp	.+8      	; 0x5f0 <__udivmodqi4_ep>

000005e8 <__udivmodqi4_loop>:
 5e8:	99 1f       	adc	r25, r25
 5ea:	96 17       	cp	r25, r22
 5ec:	08 f0       	brcs	.+2      	; 0x5f0 <__udivmodqi4_ep>
 5ee:	96 1b       	sub	r25, r22

000005f0 <__udivmodqi4_ep>:
 5f0:	88 1f       	adc	r24, r24
 5f2:	7a 95       	dec	r23
 5f4:	c9 f7       	brne	.-14     	; 0x5e8 <__udivmodqi4_loop>
 5f6:	80 95       	com	r24
 5f8:	08 95       	ret

000005fa <_exit>:
 5fa:	f8 94       	cli

000005fc <__stop_program>:
 5fc:	ff cf       	rjmp	.-2      	; 0x5fc <__stop_program>
